(dp0
S'001583618'
p1
I1111
sS'001786554'
p2
I1146
sS'001786557'
p3
I1149
sS'001786556'
p4
I1148
sS'001786551'
p5
I265
sS'001786550'
p6
I264
sS'001786552'
p7
I266
sS'001580245'
p8
I610
sS'001580244'
p9
I609
sS'001580247'
p10
I612
sS'001580215'
p11
I359
sS'001580431'
p12
I530
sS'001580240'
p13
I605
sS'001580243'
p14
I608
sS'001580242'
p15
I607
sS'001580322'
p16
I630
sS'001580323'
p17
I631
sS'001580320'
p18
I628
sS'001580321'
p19
I629
sS'001580326'
p20
I634
sS'001580327'
p21
I709
sS'001580324'
p22
I632
sS'001580325'
p23
I633
sS'001580083'
p24
I551
sS'001580249'
p25
I481
sS'001580081'
p26
I549
sS'001580080'
p27
I548
sS'001580087'
p28
I645
sS'001580218'
p29
I362
sS'001580085'
p30
I553
sS'001580084'
p31
I552
sS'001580219'
p32
I363
sS'001582173'
p33
I989
sS'001580259'
p34
I491
sS'001583690'
p35
I1070
sS'001759965'
p36
I1159
sS'001586993'
p37
I756
sS'001580246'
p38
I611
sS'001586991'
p39
I754
sS'001786555'
p40
I1147
sS'001581953'
p41
I940
sS'001786559'
p42
I543
sS'001586990'
p43
I753
sS'001582030'
p44
I1091
sS'001786558'
p45
I1150
sS'001580146'
p46
I660
sS'001580147'
p47
I565
sS'001580145'
p48
I659
sS'000642330'
p49
I1175
sS'001586058'
p50
I147
sS'001586059'
p51
I148
sS'001586056'
p52
I232
sS'001586057'
p53
I4
sS'001586054'
p54
I230
sS'001586055'
p55
I231
sS'001586052'
p56
I228
sS'001586053'
p57
I229
sS'001586050'
p58
I226
sS'001586051'
p59
I227
sS'001586117'
p60
I182
sS'001586116'
p61
I181
sS'001586115'
p62
I180
sS'001586114'
p63
I179
sS'001586113'
p64
I178
sS'001586112'
p65
I177
sS'001586111'
p66
I60
sS'001586110'
p67
I59
sS'001585981'
p68
I29
sS'001585980'
p69
I274
sS'001585983'
p70
I31
sS'001585982'
p71
I30
sS'001585985'
p72
I33
sS'001585984'
p73
I32
sS'001585987'
p74
I35
sS'001585986'
p75
I34
sS'000642334'
p76
I1179
sS'001580088'
p77
I646
sS'001586999'
p78
I762
sS'001759971'
p79
I1171
sS'001759970'
p80
I1155
sS'001586998'
p81
I761
sS'001759964'
p82
I1158
sS'001585807'
p83
I1136
sS'001581955'
p84
I942
sS'001582032'
p85
I1093
sS'001585809'
p86
I1138
sS'001580082'
p87
I550
sS'001580270'
p88
I693
sS'001580328'
p89
I710
sS'001580271'
p90
I694
sS'001582052'
p91
I894
sS'001582053'
p92
I895
sS'001587668'
p93
I851
sS'001580329'
p94
I711
sS'001582056'
p95
I898
sS'001582051'
p96
I893
sS'001582054'
p97
I896
sS'001582055'
p98
I897
sS'001582033'
p99
I1094
sS'001582058'
p100
I900
sS'001582059'
p101
I901
sS'001587667'
p102
I8
sS'001580086'
p103
I554
sS'001582292'
p104
I1055
sS'001582086'
p105
I1109
sS'001582081'
p106
I1104
sS'001586926'
p107
I803
sS'001582172'
p108
I988
sS'001586974'
p109
I749
sS'001586971'
p110
I746
sS'001586970'
p111
I745
sS'001586973'
p112
I748
sS'001586972'
p113
I747
sS'001656092'
p114
I20
sS'001580371'
p115
I723
sS'001656090'
p116
I18
sS'001656091'
p117
I19
sS'001582139'
p118
I975
sS'001580370'
p119
I722
sS'001580220'
p120
I364
sS'001580224'
p121
I368
sS'001583625'
p122
I1118
sS'001586988'
p123
I751
sS'001586989'
p124
I752
sS'001587011'
p125
I772
sS'001587010'
p126
I771
sS'001587013'
p127
I774
sS'001587012'
p128
I773
sS'001582138'
p129
I974
sS'001586987'
p130
I750
sS'001582135'
p131
I971
sS'001579923'
p132
I431
sS'001579924'
p133
I432
sS'001579925'
p134
I433
sS'001579926'
p135
I434
sS'001579927'
p136
I435
sS'001579928'
p137
I436
sS'001579929'
p138
I437
sS'001580223'
p139
I367
sS'001580250'
p140
I482
sS'001585938'
p141
I72
sS'001585939'
p142
I267
sS'001583396'
p143
I922
sS'001580368'
p144
I720
sS'001580433'
p145
I532
sS'001580366'
p146
I718
sS'001580367'
p147
I719
sS'001580364'
p148
I644
sS'001580365'
p149
I717
sS'001585934'
p150
I3
sS'001585935'
p151
I69
sS'001585936'
p152
I70
sS'001585937'
p153
I71
sS'001580047'
p154
I344
sS'001580046'
p155
I343
sS'001580045'
p156
I342
sS'001580044'
p157
I341
sS'001580043'
p158
I340
sS'001580042'
p159
I339
sS'001580041'
p160
I338
sS'001582255'
p161
I1038
sS'001586062'
p162
I280
sS'001582057'
p163
I899
sS'001759968'
p164
I1162
sS'001586899'
p165
I820
sS'001580049'
p166
I346
sS'001580048'
p167
I345
sS'001583397'
p168
I923
sS'001580342'
p169
I508
sS'001580343'
p170
I509
sS'001759969'
p171
I1163
sS'001586878'
p172
I788
sS'001586879'
p173
I789
sS'001585957'
p174
I79
sS'001586874'
p175
I784
sS'001586875'
p176
I785
sS'001586876'
p177
I786
sS'001586877'
p178
I787
sS'001586870'
p179
I780
sS'001586871'
p180
I781
sS'001586872'
p181
I782
sS'001586873'
p182
I783
sS'001580182'
p183
I676
sS'001580183'
p184
I585
sS'001786508'
p185
I298
sS'001786509'
p186
I299
sS'001580186'
p187
I588
sS'001580187'
p188
I589
sS'001580184'
p189
I586
sS'001580185'
p190
I587
sS'001786503'
p191
I293
sS'001580188'
p192
I590
sS'001580189'
p193
I591
sS'001786506'
p194
I296
sS'001786507'
p195
I297
sS'001786504'
p196
I294
sS'001786505'
p197
I295
sS'001586153'
p198
I206
sS'001586152'
p199
I205
sS'001586151'
p200
I204
sS'001586150'
p201
I203
sS'001586157'
p202
I210
sS'001586156'
p203
I209
sS'001586155'
p204
I208
sS'001586154'
p205
I207
sS'001586159'
p206
I212
sS'001586158'
p207
I211
sS'001583395'
p208
I921
sS'001580369'
p209
I721
sS'001582238'
p210
I1023
sS'001583691'
p211
I1071
sS'001582232'
p212
I1017
sS'001582233'
p213
I1018
sS'001582231'
p214
I1016
sS'001582236'
p215
I1021
sS'001582237'
p216
I1022
sS'001582234'
p217
I1019
sS'001582235'
p218
I1020
sS'001580289'
p219
I702
sS'001585813'
p220
I1142
sS'001585812'
p221
I1141
sS'001582162'
p222
I979
sS'001582018'
p223
I884
sS'001581969'
p224
I868
sS'001582019'
p225
I885
sS'001582078'
p226
I1101
sS'001585950'
p227
I28
sS'001582017'
p228
I883
sS'001582016'
p229
I882
sS'001586852'
p230
I777
sS'001582014'
p231
I880
sS'001582015'
p232
I881
sS'001580131'
p233
I658
sS'001580130'
p234
I657
sS'001586027'
p235
I125
sS'001586026'
p236
I124
sS'001586025'
p237
I44
sS'001586024'
p238
I43
sS'001586023'
p239
I42
sS'001586022'
p240
I41
sS'001586021'
p241
I40
sS'001586020'
p242
I39
sS'001580013'
p243
I456
sS'001582079'
p244
I1102
sS'001586029'
p245
I127
sS'001586028'
p246
I126
sS'001586917'
p247
I795
sS'001585951'
p248
I73
sS'000857203'
p249
I850
sS'000857202'
p250
I849
sS'000857201'
p251
I848
sS'000857200'
p252
I847
sS'001582160'
p253
I977
sS'001586939'
p254
I808
sS'001582124'
p255
I961
sS'001580019'
p256
I462
sS'001581978'
p257
I1079
sS'001581971'
p258
I1072
sS'001581972'
p259
I1073
sS'001582161'
p260
I978
sS'001582130'
p261
I967
sS'001581975'
p262
I1076
sS'001582103'
p263
I912
sS'001581977'
p264
I1078
sS'001579968'
p265
I322
sS'001579969'
p266
I444
sS'001579964'
p267
I318
sS'001579965'
p268
I319
sS'001579966'
p269
I320
sS'001579967'
p270
I321
sS'001583657'
p271
I1059
sS'001583656'
p272
I1058
sS'001583655'
p273
I1057
sS'001583654'
p274
I1056
sS'001582133'
p275
I969
sS'001580280'
p276
I617
sS'001585974'
p277
I96
sS'001585975'
p278
I97
sS'001585976'
p279
I98
sS'001585977'
p280
I271
sS'001585970'
p281
I92
sS'001585971'
p282
I93
sS'001585972'
p283
I94
sS'001585973'
p284
I95
sS'001586922'
p285
I799
sS'001586923'
p286
I800
sS'001580009'
p287
I452
sS'001580008'
p288
I451
sS'001585978'
p289
I272
sS'001585979'
p290
I273
sS'001586924'
p291
I801
sS'001586925'
p292
I802
sS'001582126'
p293
I963
sS'001580125'
p294
I564
sS'001582159'
p295
I976
sS'001582127'
p296
I964
sS'001582132'
p297
I968
sS'001581968'
p298
I867
sS'001582125'
p299
I962
sS'001586961'
p300
I738
sS'001586959'
p301
I736
sS'001582123'
p302
I960
sS'001580199'
p303
I683
sS'001581987'
p304
I1080
sS'001586958'
p305
I735
sS'001580148'
p306
I566
sS'001580198'
p307
I682
sS'001580149'
p308
I567
sS'001581989'
p309
I1082
sS'001581988'
p310
I1081
sS'001580420'
p311
I411
sS'001786546'
p312
I260
sS'001585989'
p313
I99
sS'001786544'
p314
I258
sS'001786545'
p315
I259
sS'001786542'
p316
I256
sS'001786543'
p317
I257
sS'001786540'
p318
I254
sS'001585988'
p319
I36
sS'001580256'
p320
I488
sS'001580257'
p321
I489
sS'001580254'
p322
I486
sS'001580255'
p323
I487
sS'001580252'
p324
I484
sS'001580253'
p325
I485
sS'001786548'
p326
I262
sS'001786549'
p327
I263
sS'001580317'
p328
I625
sS'001580316'
p329
I708
sS'001580315'
p330
I707
sS'001580314'
p331
I706
sS'001580313'
p332
I705
sS'001580312'
p333
I704
sS'001580311'
p334
I703
sS'001580310'
p335
I385
sS'001581943'
p336
I931
sS'001580248'
p337
I613
sS'001586898'
p338
I819
sS'001580319'
p339
I627
sS'001580318'
p340
I626
sS'001582276'
p341
I1040
sS'001582277'
p342
I1041
sS'001586950'
p343
I727
sS'001759963'
p344
I1157
sS'001580200'
p345
I684
sS'001582204'
p346
I992
sS'001582278'
p347
I1042
sS'001582279'
p348
I1043
sS'001580418'
p349
I409
sS'001580419'
p350
I410
sS'001582083'
p351
I1106
sS'001582108'
p352
I917
sS'001583620'
p353
I1113
sS'001586900'
p354
I821
sS'001580414'
p355
I526
sS'001580415'
p356
I527
sS'001580416'
p357
I407
sS'001580417'
p358
I408
sS'001580238'
p359
I691
sS'001580179'
p360
I673
sS'001580178'
p361
I672
sS'001580207'
p362
I472
sS'001580239'
p363
I692
sS'001580173'
p364
I583
sS'001580172'
p365
I582
sS'001580171'
p366
I581
sS'001580170'
p367
I580
sS'001580177'
p368
I671
sS'001580176'
p369
I670
sS'001580175'
p370
I669
sS'001580392'
p371
I525
sS'001586108'
p372
I57
sS'001586109'
p373
I58
sS'001586061'
p374
I279
sS'001586060'
p375
I149
sS'001586067'
p376
I47
sS'001586066'
p377
I46
sS'001586065'
p378
I45
sS'001586064'
p379
I282
sS'001586100'
p380
I283
sS'001586101'
p381
I284
sS'001586069'
p382
I49
sS'001586068'
p383
I48
sS'001586104'
p384
I53
sS'001586105'
p385
I54
sS'001586106'
p386
I55
sS'001586107'
p387
I56
sS'001580380'
p388
I399
sS'001580381'
p389
I400
sS'001565530'
p390
I0
sS'001565531'
p391
I1
sS'001580384'
p392
I403
sS'001580385'
p393
I404
sS'001580386'
p394
I405
sS'001580387'
p395
I406
sS'001585992'
p396
I102
sS'001585993'
p397
I103
sS'001585990'
p398
I100
sS'001585991'
p399
I101
sS'001585996'
p400
I106
sS'001585997'
p401
I107
sS'001585994'
p402
I104
sS'001585995'
p403
I105
sS'001580230'
p404
I603
sS'001586850'
p405
I775
sS'001580231'
p406
I604
sS'001582118'
p407
I956
sS'001586103'
p408
I286
sS'001583689'
p409
I1069
sS'001583399'
p410
I925
sS'001582169'
p411
I985
sS'001580288'
p412
I701
sS'001581942'
p413
I930
sS'001582073'
p414
I1096
sS'001580237'
p415
I690
sS'001759967'
p416
I1161
sS'001582067'
p417
I909
sS'001582066'
p418
I908
sS'001582065'
p419
I907
sS'001582064'
p420
I906
sS'001582063'
p421
I905
sS'001582062'
p422
I904
sS'001582061'
p423
I903
sS'001582060'
p424
I902
sS'001582069'
p425
I911
sS'001582068'
p426
I910
sS'001581949'
p427
I936
sS'001582074'
p428
I1097
sS'001581999'
p429
I873
sS'001580263'
p430
I495
sS'001586964'
p431
I741
sS'001586962'
p432
I739
sS'001586963'
p433
I740
sS'001586960'
p434
I737
sS'001580262'
p435
I494
sS'001582082'
p436
I1105
sS'001586968'
p437
I743
sS'001586969'
p438
I744
sS'001580429'
p439
I528
sS'001580260'
p440
I492
sS'001582075'
p441
I1098
sS'000642332'
p442
I1177
sS'001586967'
p443
I742
sS'001581941'
p444
I929
sS'001581940'
p445
I928
sS'001587008'
p446
I769
sS'001587009'
p447
I770
sS'001581945'
p448
I933
sS'001581944'
p449
I932
sS'001581947'
p450
I935
sS'001581946'
p451
I934
sS'001587002'
p452
I765
sS'001587003'
p453
I766
sS'001587000'
p454
I763
sS'001587001'
p455
I764
sS'001587006'
p456
I767
sS'001587007'
p457
I768
sS'001580241'
p458
I606
sS'001586089'
p459
I166
sS'001586088'
p460
I165
sS'001582076'
p461
I1099
sS'001586901'
p462
I822
sS'001581976'
p463
I1077
sS'001580358'
p464
I638
sS'001586081'
p465
I158
sS'001586080'
p466
I157
sS'001586083'
p467
I160
sS'001586082'
p468
I159
sS'001586085'
p469
I162
sS'001586084'
p470
I161
sS'001586087'
p471
I164
sS'001586086'
p472
I163
sS'001580058'
p473
I348
sS'001580059'
p474
I349
sS'001580423'
p475
I414
sS'001580422'
p476
I413
sS'001585949'
p477
I27
sS'001585948'
p478
I26
sS'001580427'
p479
I418
sS'001580426'
p480
I417
sS'001585945'
p481
I23
sS'001585944'
p482
I22
sS'001585947'
p483
I25
sS'001585946'
p484
I24
sS'001585941'
p485
I269
sS'001585940'
p486
I268
sS'001585943'
p487
I21
sS'001585942'
p488
I270
sS'001582077'
p489
I1100
sS'001580307'
p490
I506
sS'001581997'
p491
I871
sS'001582031'
p492
I1092
sS'001582047'
p493
I889
sS'001582029'
p494
I1090
sS'001580455'
p495
I534
sS'001580456'
p496
I419
sS'001580457'
p497
I420
sS'001586885'
p498
I725
sS'001586887'
p499
I791
sS'001586886'
p500
I726
sS'001586889'
p501
I793
sS'001586888'
p502
I792
sS'001580458'
p503
I421
sS'001580459'
p504
I422
sS'001583621'
p505
I1114
sS'001580421'
p506
I412
sS'001786539'
p507
I253
sS'001786538'
p508
I252
sS'001786537'
p509
I251
sS'001786536'
p510
I250
sS'001786535'
p511
I249
sS'001786534'
p512
I248
sS'001786533'
p513
I247
sS'001786532'
p514
I246
sS'001786531'
p515
I245
sS'001786530'
p516
I244
sS'001586144'
p517
I63
sS'001586145'
p518
I64
sS'001586146'
p519
I65
sS'001586147'
p520
I66
sS'001586140'
p521
I289
sS'001586141'
p522
I290
sS'001586142'
p523
I61
sS'001586143'
p524
I62
sS'001582112'
p525
I951
sS'001580425'
p526
I416
sS'001580057'
p527
I347
sS'001586148'
p528
I67
sS'001586149'
p529
I68
sS'001580229'
p530
I602
sS'001580424'
p531
I415
sS'001582240'
p532
I1024
sS'001580214'
p533
I479
sS'001580355'
p534
I635
sS'001582209'
p535
I997
sS'001582208'
p536
I996
sS'001582207'
p537
I995
sS'001582206'
p538
I994
sS'001582205'
p539
I993
sS'001580354'
p540
I716
sS'001582246'
p541
I1030
sS'001580050'
p542
I465
sS'001582111'
p543
I950
sS'001580428'
p544
I2
sS'001580052'
p545
I467
sS'001580391'
p546
I524
sS'001580053'
p547
I468
sS'001580054'
p548
I469
sS'001761313'
p549
I1156
sS'001582050'
p550
I892
sS'001580055'
p551
I470
sS'001586038'
p552
I136
sS'001586039'
p553
I137
sS'001580122'
p554
I561
sS'001580123'
p555
I562
sS'001580124'
p556
I563
sS'001580056'
p557
I471
sS'001580126'
p558
I653
sS'001580127'
p559
I654
sS'001586030'
p560
I128
sS'001586031'
p561
I129
sS'001586032'
p562
I130
sS'001586033'
p563
I131
sS'001586034'
p564
I132
sS'001586035'
p565
I133
sS'001586036'
p566
I134
sS'001586037'
p567
I135
sS'001586131'
p568
I196
sS'001586130'
p569
I195
sS'001586133'
p570
I198
sS'001586132'
p571
I197
sS'001586135'
p572
I200
sS'001586134'
p573
I199
sS'001586137'
p574
I202
sS'001586136'
p575
I201
sS'001586139'
p576
I288
sS'001586138'
p577
I287
sS'001582171'
p578
I987
sS'000857197'
p579
I845
sS'000857196'
p580
I844
sS'000857195'
p581
I843
sS'000857194'
p582
I842
sS'000857193'
p583
I841
sS'000857192'
p584
I840
sS'000857191'
p585
I839
sS'000857190'
p586
I838
sS'001583623'
p587
I1116
sS'001583398'
p588
I924
sS'000857198'
p589
I846
sS'001586918'
p590
I796
sS'001582170'
p591
I986
sS'001582285'
p592
I1048
sS'000857176'
p593
I825
sS'001580007'
p594
I334
sS'001580006'
p595
I333
sS'001580005'
p596
I332
sS'001585810'
p597
I1139
sS'001747143'
p598
I1145
sS'001747142'
p599
I292
sS'001582000'
p600
I874
sS'001641607'
p601
I1182
sS'001582129'
p602
I966
sS'001583682'
p603
I1062
sS'001586920'
p604
I798
sS'001580014'
p605
I457
sS'001580015'
p606
I458
sS'001580016'
p607
I459
sS'001580017'
p608
I460
sS'001580010'
p609
I453
sS'001580011'
p610
I454
sS'001580012'
p611
I455
sS'001586013'
p612
I123
sS'001580341'
p613
I507
sS'001586916'
p614
I794
sS'001580018'
p615
I461
sS'001580298'
p616
I380
sS'001580299'
p617
I381
sS'001580390'
p618
I523
sS'001582166'
p619
I983
sS'001583394'
p620
I920
sS'001582034'
p621
I1095
sS'001580382'
p622
I401
sS'001582164'
p623
I981
sS'001582165'
p624
I982
sS'001583624'
p625
I1117
sS'001581996'
p626
I870
sS'001580286'
p627
I623
sS'001581994'
p628
I1087
sS'001581995'
p629
I869
sS'001581992'
p630
I1085
sS'001581993'
p631
I1086
sS'001581990'
p632
I1083
sS'001581991'
p633
I1084
sS'001580151'
p634
I569
sS'001580290'
p635
I372
sS'001581998'
p636
I872
sS'001580150'
p637
I568
sS'001580308'
p638
I383
sS'001580309'
p639
I384
sS'001580261'
p640
I493
sS'001580291'
p641
I373
sS'001580267'
p642
I499
sS'001580266'
p643
I498
sS'001580265'
p644
I497
sS'001580264'
p645
I496
sS'001580300'
p646
I382
sS'001580301'
p647
I500
sS'001580302'
p648
I501
sS'001580268'
p649
I371
sS'001580304'
p650
I503
sS'001580305'
p651
I504
sS'001580306'
p652
I505
sS'001580297'
p653
I379
sS'001580061'
p654
I351
sS'001580060'
p655
I350
sS'001582249'
p656
I1032
sS'001582134'
p657
I970
sS'001582243'
p658
I1027
sS'001582242'
p659
I1026
sS'001582241'
p660
I1025
sS'001582109'
p661
I918
sS'001582247'
p662
I1031
sS'001582137'
p663
I973
sS'001582245'
p664
I1029
sS'001582244'
p665
I1028
sS'001582136'
p666
I972
sS'001582119'
p667
I957
sS'001586880'
p668
I790
sS'001580159'
p669
I663
sS'001580158'
p670
I662
sS'001583686'
p671
I1066
sS'001582094'
p672
I949
sS'001580469'
p673
I536
sS'001580468'
p674
I535
sS'001582121'
p675
I959
sS'001580465'
p676
I428
sS'001580464'
p677
I427
sS'001580467'
p678
I430
sS'001580466'
p679
I429
sS'001580461'
p680
I424
sS'001580460'
p681
I423
sS'001580463'
p682
I426
sS'001580462'
p683
I425
sS'000857188'
p684
I836
sS'001580168'
p685
I578
sS'001580169'
p686
I579
sS'000857189'
p687
I837
sS'001580164'
p688
I668
sS'001580165'
p689
I575
sS'001580166'
p690
I576
sS'001580167'
p691
I577
sS'001580160'
p692
I664
sS'001580161'
p693
I665
sS'001580162'
p694
I666
sS'001580163'
p695
I667
sS'001586074'
p696
I151
sS'001586075'
p697
I152
sS'001586076'
p698
I153
sS'001586077'
p699
I154
sS'001586070'
p700
I50
sS'001586071'
p701
I51
sS'001586072'
p702
I52
sS'001586073'
p703
I150
sS'001586171'
p704
I224
sS'001586079'
p705
I156
sS'001582253'
p706
I1036
sS'001582104'
p707
I913
sS'001580089'
p708
I647
sS'001582105'
p709
I914
sS'001582106'
p710
I915
sS'001582107'
p711
I916
sS'001580383'
p712
I402
sS'000857181'
p713
I830
sS'001585791'
p714
I1120
sS'000857182'
p715
I831
sS'001585798'
p716
I1127
sS'001641573'
p717
I1153
sS'000857183'
p718
I832
sS'001580222'
p719
I366
sS'001641574'
p720
I1154
sS'000642331'
p721
I1176
sS'001585799'
p722
I1128
sS'001788034'
p723
I1151
sS'001788035'
p724
I309
sS'001788036'
p725
I1152
sS'001788037'
p726
I310
sS'000642329'
p727
I1174
sS'001580119'
p728
I558
sS'001580118'
p729
I557
sS'001580353'
p730
I715
sS'001761327'
p731
I1165
sS'001761326'
p732
I1164
sS'001583680'
p733
I1060
sS'001583681'
p734
I1061
sS'001580348'
p735
I514
sS'001580112'
p736
I649
sS'001580115'
p737
I652
sS'001580114'
p738
I651
sS'001580117'
p739
I556
sS'001580116'
p740
I555
sS'001586001'
p741
I111
sS'001586000'
p742
I110
sS'001586003'
p743
I113
sS'001586002'
p744
I112
sS'001586005'
p745
I115
sS'001586004'
p746
I114
sS'001586007'
p747
I117
sS'001586006'
p748
I116
sS'001586009'
p749
I119
sS'001586078'
p750
I155
sS'001580283'
p751
I620
sS'001580282'
p752
I619
sS'001580285'
p753
I622
sS'001580284'
p754
I621
sS'001580287'
p755
I624
sS'001586170'
p756
I223
sS'001585790'
p757
I1119
sS'001583619'
p758
I1112
sS'001580349'
p759
I515
sS'001586851'
p760
I776
sS'001616792'
p761
I852
sS'001616795'
p762
I855
sS'001616794'
p763
I854
sS'001585793'
p764
I1122
sS'001585801'
p765
I1130
sS'001585794'
p766
I1123
sS'001585795'
p767
I1124
sS'001583622'
p768
I1115
sS'000436387'
p769
I1181
sS'001585796'
p770
I1125
sS'001585797'
p771
I1126
sS'001581952'
p772
I939
sS'001580227'
p773
I480
sS'001581950'
p774
I937
sS'001581951'
p775
I938
sS'001581956'
p776
I943
sS'001581957'
p777
I856
sS'001581954'
p778
I941
sS'001580226'
p779
I370
sS'001581958'
p780
I857
sS'001581959'
p781
I858
sS'001580225'
p782
I369
sS'001582085'
p783
I1108
sS'001582084'
p784
I1107
sS'001586098'
p785
I175
sS'001586099'
p786
I176
sS'001579942'
p787
I317
sS'001582080'
p788
I1103
sS'001579940'
p789
I315
sS'001579941'
p790
I316
sS'001586092'
p791
I169
sS'001586093'
p792
I170
sS'001586090'
p793
I167
sS'001586091'
p794
I168
sS'001586096'
p795
I173
sS'001586097'
p796
I174
sS'001586094'
p797
I171
sS'001586095'
p798
I172
sS'001580344'
p799
I510
sS'001580345'
p800
I511
sS'001580346'
p801
I512
sS'001580347'
p802
I513
sS'001580340'
p803
I394
sS'001580221'
p804
I365
sS'001585958'
p805
I80
sS'001585959'
p806
I81
sS'001585956'
p807
I78
sS'001580024'
p808
I337
sS'001585954'
p809
I76
sS'001585955'
p810
I77
sS'001585952'
p811
I74
sS'001585953'
p812
I75
sS'001580023'
p813
I336
sS'001580022'
p814
I335
sS'001582287'
p815
I1050
sS'001582286'
p816
I1049
sS'001580129'
p817
I656
sS'001585814'
p818
I1143
sS'001582283'
p819
I1047
sS'001582282'
p820
I1046
sS'001582281'
p821
I1045
sS'001582280'
p822
I1044
sS'001580021'
p823
I464
sS'001586919'
p824
I797
sS'001581964'
p825
I863
sS'001582289'
p826
I1052
sS'001582288'
p827
I1051
sS'001580258'
p828
I490
sS'001786541'
p829
I255
sS'001586892'
p830
I813
sS'001586893'
p831
I814
sS'001586890'
p832
I5
sS'001586891'
p833
I6
sS'001586896'
p834
I817
sS'001586897'
p835
I818
sS'001586894'
p836
I815
sS'001586895'
p837
I816
sS'001580020'
p838
I463
sS'001586952'
p839
I729
sS'001586951'
p840
I728
sS'001580228'
p841
I601
sS'001586957'
p842
I734
sS'001586956'
p843
I733
sS'001586955'
p844
I732
sS'001586954'
p845
I731
sS'001786520'
p846
I234
sS'001786521'
p847
I235
sS'001786522'
p848
I236
sS'001786523'
p849
I237
sS'001786524'
p850
I238
sS'001786525'
p851
I239
sS'001786526'
p852
I240
sS'001786527'
p853
I241
sS'001786528'
p854
I242
sS'001786529'
p855
I243
sS'001580232'
p856
I685
sS'001580233'
p857
I686
sS'001580234'
p858
I687
sS'001580235'
p859
I688
sS'001580236'
p860
I689
sS'001580051'
p861
I466
sS'001580331'
p862
I713
sS'001580330'
p863
I712
sS'001580333'
p864
I387
sS'001580332'
p865
I386
sS'001580335'
p866
I389
sS'001580334'
p867
I388
sS'001580337'
p868
I391
sS'001580336'
p869
I390
sS'001580339'
p870
I393
sS'001580338'
p871
I392
sS'001580251'
p872
I483
sS'001581962'
p873
I861
sS'001582210'
p874
I998
sS'001582211'
p875
I999
sS'001582213'
p876
I1000
sS'001582214'
p877
I1001
sS'001582215'
p878
I1002
sS'001582216'
p879
I1003
sS'001582217'
p880
I1004
sS'001582218'
p881
I1005
sS'001582219'
p882
I1006
sS'001582117'
p883
I955
sS'001786547'
p884
I261
sS'001582256'
p885
I1039
sS'001581965'
p886
I864
sS'001585792'
p887
I1121
sS'000857177'
p888
I826
sS'001586934'
p889
I804
sS'001585808'
p890
I1137
sS'001581973'
p891
I1074
sS'000857179'
p892
I828
sS'000857178'
p893
I827
sS'001580155'
p894
I573
sS'001580154'
p895
I572
sS'001580157'
p896
I661
sS'001580156'
p897
I574
sS'001586049'
p898
I225
sS'001586048'
p899
I146
sS'001580153'
p900
I571
sS'001580152'
p901
I570
sS'001586045'
p902
I143
sS'001586044'
p903
I142
sS'001586047'
p904
I145
sS'001586046'
p905
I144
sS'001586041'
p906
I139
sS'001586040'
p907
I138
sS'001586043'
p908
I141
sS'001586042'
p909
I140
sS'001586122'
p910
I187
sS'001586123'
p911
I188
sS'001586120'
p912
I185
sS'001586121'
p913
I186
sS'001586126'
p914
I191
sS'001586127'
p915
I192
sS'001586124'
p916
I189
sS'001586125'
p917
I190
sS'000857180'
p918
I829
sS'001580090'
p919
I648
sS'001586128'
p920
I193
sS'001586129'
p921
I194
sS'000857184'
p922
I833
sS'000857185'
p923
I834
sS'000857186'
p924
I835
sS'001580206'
p925
I600
sS'001580352'
p926
I714
sS'001582087'
p927
I1110
sS'001580362'
p928
I642
sS'001580209'
p929
I474
sS'001580363'
p930
I643
sS'001580360'
p931
I640
sS'001580361'
p932
I641
sS'001580351'
p933
I517
sS'001759966'
p934
I1160
sS'001579982'
p935
I329
sS'001579983'
p936
I330
sS'001579980'
p937
I327
sS'001579981'
p938
I328
sS'001582045'
p939
I887
sS'001582044'
p940
I886
sS'001579984'
p941
I331
sS'001582046'
p942
I888
sS'001582049'
p943
I891
sS'001582048'
p944
I890
sS'000642335'
p945
I1180
sS'001580208'
p946
I473
sS'001580350'
p947
I516
sS'001580191'
p948
I593
sS'001656089'
p949
I17
sS'001656088'
p950
I16
sS'001586902'
p951
I823
sS'001586903'
p952
I824
sS'001586938'
p953
I807
sS'001656081'
p954
I9
sS'001582168'
p955
I984
sS'001656083'
p956
I11
sS'001656082'
p957
I10
sS'001656085'
p958
I13
sS'001656084'
p959
I12
sS'001656087'
p960
I15
sS'001656086'
p961
I14
sS'001761329'
p962
I1167
sS'001585811'
p963
I1140
sS'001761328'
p964
I1166
sS'001580357'
p965
I637
sS'001580190'
p966
I592
sS'001580113'
p967
I650
sS'001581974'
p968
I1075
sS'001583683'
p969
I1063
sS'000642333'
p970
I1178
sS'001583684'
p971
I1064
sS'001583685'
p972
I1065
sS'001586997'
p973
I760
sS'001586996'
p974
I759
sS'001586995'
p975
I758
sS'001586994'
p976
I757
sS'001580303'
p977
I502
sS'001586992'
p978
I755
sS'001579939'
p979
I314
sS'001579938'
p980
I313
sS'001579937'
p981
I312
sS'001579936'
p982
I311
sS'001579935'
p983
I443
sS'001579934'
p984
I442
sS'001579933'
p985
I441
sS'001579932'
p986
I440
sS'001579931'
p987
I439
sS'001579930'
p988
I438
sS'001580274'
p989
I697
sS'001580275'
p990
I698
sS'001580276'
p991
I699
sS'001580277'
p992
I700
sS'001580379'
p993
I398
sS'001580378'
p994
I397
sS'001580272'
p995
I695
sS'001580273'
p996
I696
sS'001580375'
p997
I520
sS'001580374'
p998
I519
sS'001580377'
p999
I396
sS'001580376'
p1000
I395
sS'001580278'
p1001
I615
sS'001580279'
p1002
I616
sS'001580373'
p1003
I518
sS'001580372'
p1004
I724
sS'001580072'
p1005
I354
sS'001580073'
p1006
I355
sS'001580070'
p1007
I352
sS'001580071'
p1008
I353
sS'001580076'
p1009
I358
sS'001580077'
p1010
I545
sS'001580074'
p1011
I356
sS'001580075'
p1012
I357
sS'001582254'
p1013
I1037
sS'001582175'
p1014
I991
sS'001580078'
p1015
I546
sS'001580079'
p1016
I547
sS'001582250'
p1017
I1033
sS'001582251'
p1018
I1034
sS'001582252'
p1019
I1035
sS'001582174'
p1020
I990
sS'001580120'
p1021
I559
sS'001583400'
p1022
I926
sS'001580121'
p1023
I560
sS'001583687'
p1024
I1067
sS'001580281'
p1025
I618
sS'001586869'
p1026
I779
sS'001586868'
p1027
I778
sS'001585800'
p1028
I1129
sS'001586008'
p1029
I118
sS'001582027'
p1030
I1088
sS'001580474'
p1031
I541
sS'001580475'
p1032
I542
sS'001580472'
p1033
I539
sS'001580473'
p1034
I540
sS'001580470'
p1035
I537
sS'001580471'
p1036
I538
sS'001786519'
p1037
I233
sS'001786518'
p1038
I308
sS'001580193'
p1039
I677
sS'001580192'
p1040
I594
sS'001580195'
p1041
I679
sS'001580194'
p1042
I678
sS'001580197'
p1043
I681
sS'001580196'
p1044
I680
sS'001786511'
p1045
I301
sS'001786510'
p1046
I300
sS'001786513'
p1047
I303
sS'001786512'
p1048
I302
sS'001786515'
p1049
I305
sS'001786514'
p1050
I304
sS'001786517'
p1051
I307
sS'001786516'
p1052
I306
sS'001580201'
p1053
I595
sS'001580128'
p1054
I655
sS'001580203'
p1055
I597
sS'001580202'
p1056
I596
sS'001580205'
p1057
I599
sS'001580204'
p1058
I598
sS'001586168'
p1059
I221
sS'001586169'
p1060
I222
sS'001586166'
p1061
I219
sS'001586167'
p1062
I220
sS'001586164'
p1063
I217
sS'001586165'
p1064
I218
sS'001586162'
p1065
I215
sS'001586163'
p1066
I216
sS'001586160'
p1067
I213
sS'001586161'
p1068
I214
sS'001582229'
p1069
I1015
sS'001582228'
p1070
I1014
sS'001582028'
p1071
I1089
sS'001582220'
p1072
I1007
sS'001582223'
p1073
I1009
sS'001582222'
p1074
I1008
sS'001582225'
p1075
I1011
sS'001582224'
p1076
I1010
sS'001582227'
p1077
I1013
sS'001582226'
p1078
I1012
sS'001585802'
p1079
I1131
sS'001786560'
p1080
I544
sS'001582163'
p1081
I980
sS'001580359'
p1082
I639
sS'001585803'
p1083
I1132
sS'001761332'
p1084
I1170
sS'001761330'
p1085
I1168
sS'001761331'
p1086
I1169
sS'001582005'
p1087
I879
sS'001582004'
p1088
I878
sS'001580174'
p1089
I584
sS'001582001'
p1090
I875
sS'001616793'
p1091
I853
sS'001582003'
p1092
I877
sS'001582002'
p1093
I876
sS'001586012'
p1094
I122
sS'001586063'
p1095
I281
sS'001586010'
p1096
I120
sS'001586011'
p1097
I121
sS'001586016'
p1098
I277
sS'001586017'
p1099
I278
sS'001586014'
p1100
I275
sS'001586015'
p1101
I276
sS'001580292'
p1102
I374
sS'001580293'
p1103
I375
sS'001586018'
p1104
I37
sS'001586019'
p1105
I38
sS'001580296'
p1106
I378
sS'001586119'
p1107
I184
sS'001580294'
p1108
I376
sS'001580295'
p1109
I377
sS'001582128'
p1110
I965
sS'001582110'
p1111
I919
sS'001583401'
p1112
I927
sS'001582116'
p1113
I954
sS'001582115'
p1114
I953
sS'001585805'
p1115
I1134
sS'001586118'
p1116
I183
sS'001582120'
p1117
I958
sS'001580180'
p1118
I674
sS'001580181'
p1119
I675
sS'001580434'
p1120
I533
sS'001586102'
p1121
I285
sS'001581967'
p1122
I866
sS'001581966'
p1123
I865
sS'001579979'
p1124
I326
sS'001579978'
p1125
I325
sS'001581963'
p1126
I862
sS'001587025'
p1127
I7
sS'001581961'
p1128
I860
sS'001581960'
p1129
I859
sS'001579973'
p1130
I448
sS'001579972'
p1131
I447
sS'001579971'
p1132
I446
sS'001579970'
p1133
I445
sS'001579977'
p1134
I324
sS'001579976'
p1135
I323
sS'001579975'
p1136
I450
sS'001579974'
p1137
I449
sS'001582114'
p1138
I952
sS'001580432'
p1139
I531
sS'001580356'
p1140
I636
sS'001582092'
p1141
I947
sS'001582093'
p1142
I948
sS'001582090'
p1143
I945
sS'001582091'
p1144
I946
sS'001585804'
p1145
I1133
sS'001582089'
p1146
I944
sS'000642326'
p1147
I1172
sS'000642327'
p1148
I1173
sS'001585963'
p1149
I85
sS'001585962'
p1150
I84
sS'001585961'
p1151
I83
sS'001585960'
p1152
I82
sS'001585967'
p1153
I89
sS'001585966'
p1154
I88
sS'001585965'
p1155
I87
sS'001585964'
p1156
I86
sS'001582290'
p1157
I1053
sS'001582291'
p1158
I1054
sS'001585969'
p1159
I91
sS'001585968'
p1160
I90
sS'001586935'
p1161
I805
sS'001585998'
p1162
I108
sS'001585806'
p1163
I1135
sS'001586936'
p1164
I806
sS'001719586'
p1165
I291
sS'001719587'
p1166
I1144
sS'001585999'
p1167
I109
sS'001583688'
p1168
I1068
sS'001580269'
p1169
I614
sS'001580212'
p1170
I477
sS'001580213'
p1171
I478
sS'001580210'
p1172
I475
sS'001580430'
p1173
I529
sS'001586941'
p1174
I810
sS'001580388'
p1175
I521
sS'001580211'
p1176
I476
sS'001580389'
p1177
I522
sS'001580216'
p1178
I360
sS'001586943'
p1179
I812
sS'001586940'
p1180
I809
sS'001586953'
p1181
I730
sS'001586942'
p1182
I811
sS'001580217'
p1183
I361
s.