(lp0
S'001656081'
p1
aS'001656082'
p2
aS'001656083'
p3
aS'001656084'
p4
aS'001656085'
p5
aS'001656086'
p6
aS'001656087'
p7
aS'001656088'
p8
aS'001656089'
p9
aS'001656090'
p10
aS'001656091'
p11
aS'001656092'
p12
a.